ccollections
defaultdict
p0
(c__builtin__
dict
p1
tp2
Rp3
S'2016-12-04 18:03'
p4
(dp5
S'Date'
p6
S'2016-12-04 18:03'
p7
sS'Irrigation'
p8
S'SCHEDULED'
p9
ssS'2016-12-04 17:43'
p10
(dp11
S'Date'
p12
S'2016-12-04 17:43'
p13
sS'Irrigation'
p14
S'SCHEDULED'
p15
ssS'2016-12-04 18:05'
p16
(dp17
S'Date'
p18
S'2016-12-04 18:05'
p19
sS'Irrigation'
p20
S'SCHEDULED'
p21
ssS'2016-12-04 18:04'
p22
(dp23
S'Date'
p24
g22
sS'Irrigation'
p25
S'SCHEDULED'
p26
ssS'2016-12-04 18:06'
p27
(dp28
S'Date'
p29
g27
sS'Irrigation'
p30
S'SCHEDULED'
p31
ssS'2016-12-04 17:45'
p32
(dp33
S'Date'
p34
S'2016-12-04 17:45'
p35
sS'Irrigation'
p36
S'SCHEDULED'
p37
ssS'2016-12-04 17:46'
p38
(dp39
S'Date'
p40
g38
sS'Irrigation'
p41
S'SCHEDULED'
p42
ssS'2016-12-04 17:54'
p43
(dp44
S'Date'
p45
g43
sS'Irrigation'
p46
S'SCHEDULED'
p47
ssS'2016-12-04 17:53'
p48
(dp49
S'Date'
p50
g48
sS'Irrigation'
p51
S'SCHEDULED'
p52
ssS'2016-12-03 18:52'
p53
(dp54
S'Date'
p55
g53
sS'Irrigation'
p56
S'SCHEDULED'
p57
ss.