ccollections
defaultdict
p0
(c__builtin__
dict
p1
tp2
Rp3
S'2016-12-06 12:54'
p4
(dp5
S'Date'
p6
g4
sS'Irrigation'
p7
S'SCHEDULED'
p8
ssS'2016-12-06 13:25'
p9
(dp10
S'Date'
p11
g9
sS'Irrigation'
p12
S'SKIPPED'
p13
ssS'2016-12-06 13:27'
p14
(dp15
S'Date'
p16
g14
sS'Irrigation'
p17
S'SKIPPED'
p18
ssS'2016-12-06 13:21'
p19
(dp20
S'Date'
p21
g19
sS'Irrigation'
p22
S'SKIPPED'
p23
ssS'2016-12-06 13:23'
p24
(dp25
S'Date'
p26
g24
sS'Irrigation'
p27
S'SKIPPED'
p28
ssS'2016-12-06 12:52'
p29
(dp30
S'Date'
p31
g29
sS'Irrigation'
p32
S'SKIPPED'
p33
ssS'2016-12-06 12:50'
p34
(dp35
S'Date'
p36
g34
sS'Irrigation'
p37
S'SCHEDULED'
p38
ssS'2016-12-06 13:01'
p39
(dp40
S'Date'
p41
g39
sS'Irrigation'
p42
S'SKIPPED'
p43
ssS'2016-12-06 13:06'
p44
(dp45
S'Date'
p46
g44
sS'Irrigation'
p47
S'SKIPPED'
p48
ssS'2016-12-06 13:07'
p49
(dp50
S'Date'
p51
g49
sS'Irrigation'
p52
S'SKIPPED'
p53
ssS'2016-12-06 13:04'
p54
(dp55
S'Date'
p56
g54
sS'Irrigation'
p57
S'SCHEDULED'
p58
ssS'2016-12-06 13:05'
p59
(dp60
S'Date'
p61
g59
sS'Irrigation'
p62
S'SCHEDULED'
p63
ssS'2016-12-06 12:58'
p64
(dp65
S'Date'
p66
g64
sS'Irrigation'
p67
S'SKIPPED'
p68
ssS'2016-12-06 13:09'
p69
(dp70
S'Date'
p71
g69
sS'Irrigation'
p72
S'SKIPPED'
p73
ssS'2016-12-06 12:59'
p74
(dp75
S'Date'
p76
g74
sS'Irrigation'
p77
S'SKIPPED'
p78
ssS'2016-12-06 14:18'
p79
(dp80
S'Date'
p81
g79
sS'Irrigation'
p82
S'SKIPPED'
p83
ssS'2016-12-06 14:19'
p84
(dp85
S'Date'
p86
g84
sS'Irrigation'
p87
S'SKIPPED'
p88
ssS'2016-12-06 14:16'
p89
(dp90
S'Date'
p91
g89
sS'Irrigation'
p92
S'SKIPPED'
p93
ssS'2016-12-06 14:33'
p94
(dp95
S'Date'
p96
g94
sS'Irrigation'
p97
S'SKIPPED'
p98
ssS'2016-12-06 14:31'
p99
(dp100
S'Date'
p101
g99
sS'Irrigation'
p102
S'SKIPPED'
p103
ssS'2016-12-06 14:35'
p104
(dp105
S'Date'
p106
g104
sS'Irrigation'
p107
S'SKIPPED'
p108
ssS'2016-12-06 13:15'
p109
(dp110
S'Date'
p111
g109
sS'Irrigation'
p112
S'SCHEDULED'
p113
ssS'2016-12-06 13:17'
p114
(dp115
S'Date'
p116
g114
sS'Irrigation'
p117
S'SKIPPED'
p118
ssS'2016-12-06 13:11'
p119
(dp120
S'Date'
p121
g119
sS'Irrigation'
p122
S'SKIPPED'
p123
ssS'2016-12-06 13:13'
p124
(dp125
S'Date'
p126
g124
sS'Irrigation'
p127
S'SCHEDULED'
p128
ssS'2016-12-06 13:19'
p129
(dp130
S'Date'
p131
g129
sS'Irrigation'
p132
S'SKIPPED'
p133
ssS'2016-12-06 12:48'
p134
(dp135
S'Date'
p136
g134
sS'Irrigation'
p137
S'SCHEDULED'
p138
ssS'2016-12-06 13:02'
p139
(dp140
S'Date'
p141
g139
sS'Irrigation'
p142
S'SKIPPED'
p143
ssS'2016-12-06 14:25'
p144
(dp145
S'Date'
p146
g144
sS'Irrigation'
p147
S'SKIPPED'
p148
ssS'2016-12-06 14:27'
p149
(dp150
S'Date'
p151
g149
sS'Irrigation'
p152
S'SKIPPED'
p153
ssS'2016-12-06 14:21'
p154
(dp155
S'Date'
p156
g154
sS'Irrigation'
p157
S'SKIPPED'
p158
ssS'2016-12-06 14:23'
p159
(dp160
S'Date'
p161
g159
sS'Irrigation'
p162
S'SKIPPED'
p163
ssS'2016-12-06 12:56'
p164
(dp165
S'Date'
p166
g164
sS'Irrigation'
p167
S'SCHEDULED'
p168
ssS'2016-12-06 14:29'
p169
(dp170
S'Date'
p171
g169
sS'Irrigation'
p172
S'SKIPPED'
p173
ssS'2016-12-06 12:57'
p174
(dp175
S'Date'
p176
S'2016-12-06 12:57'
p177
sS'Irrigation'
p178
S'SKIPPED'
p179
ss.