ccollections
defaultdict
p0
(c__builtin__
dict
p1
tp2
Rp3
S'2016-12-08 14:53'
p4
(dp5
S'Date'
p6
g4
sS'Irrigation'
p7
S'SKIPPED'
p8
ssS'2016-12-08 14:47'
p9
(dp10
S'Date'
p11
g9
sS'Irrigation'
p12
S'SKIPPED'
p13
ssS'2016-12-08 14:51'
p14
(dp15
S'Date'
p16
g14
sS'Irrigation'
p17
S'SKIPPED'
p18
ssS'2016-12-08 14:49'
p19
(dp20
S'Date'
p21
g19
sS'Irrigation'
p22
S'SKIPPED'
p23
ss.