ccollections
defaultdict
p0
(c__builtin__
dict
p1
tp2
Rp3
S'Brightness'
p4
(dp5
S'Threshold'
p6
I102
sS'Reading'
p7
I64
ssS'Temperature'
p8
(dp9
g6
I31
sg7
I25
ssS'Moisture'
p10
(dp11
g6
I500
sg7
I1023
ssS'Humidity'
p12
(dp13
g6
I20
sg7
I32
ss.