ccollections
defaultdict
p0
(c__builtin__
dict
p1
tp2
Rp3
S'Brightness'
p4
(dp5
S'Threshold'
p6
I90
sS'Reading'
p7
I99
ssS'Temperature'
p8
(dp9
g6
I20
sg7
I0
ssS'Moisture'
p10
(dp11
g6
I5
sg7
I0
ssS'Humidity'
p12
(dp13
g6
I20
sg7
I99
ss.