(dp0
S'SensorStartAMPM'
p1
V0
p2
sS'SensorEndAMPM'
p3
V0
p4
sS'IrrigationStartTime'
p5
V0
p6
sS'SensorEndTime'
p7
V0
p8
sS'SensorStartTime'
p9
V0
p10
sS'IrrigationDuration'
p11
V0.5
p12
sS'IrrigationStartAMPM'
p13
V0
p14
s.