(dp0
S'SensorStartAMPM'
p1
V1
p2
sS'SensorEndAMPM'
p3
V0
p4
sS'IrrigationStartTime'
p5
V9
p6
sS'SeqNum'
p7
I6
sS'SensorEndTime'
p8
V11
p9
sS'SensorStartTime'
p10
V12
p11
sS'IrrigationDuration'
p12
V4
p13
sS'IrrigationStartAMPM'
p14
V0
p15
s.