(dp0
S'SensorStartAMPM'
p1
V0
p2
sS'SensorEndAMPM'
p3
V0
p4
sS'IrrigationStartTime'
p5
V1
p6
sS'SeqNum'
p7
I0
sS'SensorEndTime'
p8
V1
p9
sS'SensorStartTime'
p10
V1
p11
sS'IrrigationDuration'
p12
V0.5
p13
sS'IrrigationStartAMPM'
p14
V0
p15
s.